target datalayout = "e-m:e-p270:32:32-p271:32:32-p272:64:64-i64:64-i128:128-f80:128-n8:16:32:64-S128"
target triple = "x86_64-unknown-linux-gnu"

%"class.grpc_core::promise_filter_detail::BaseCallData" = type { %"class.grpc_core::Activity", %"class.grpc_core::Wakeable", ptr, ptr, ptr, ptr, %"class.grpc_core::Timestamp", %"class.grpc_core::CallFinalization", ptr, ptr, %"struct.std::atomic", ptr, ptr, ptr, ptr }
%"class.grpc_core::Activity" = type { %"class.grpc_core::Orphanable" }
%"class.grpc_core::Orphanable" = type { ptr }
%"class.grpc_core::Wakeable" = type { ptr }
%"class.grpc_core::Timestamp" = type { i64 }
%"class.grpc_core::CallFinalization" = type { ptr }
%"struct.std::atomic" = type { %"struct.std::__atomic_base" }
%"struct.std::__atomic_base" = type { ptr }
%struct.grpc_closure = type { %union.anon, ptr, ptr, %union.anon.9 }
%union.anon = type { ptr }
%union.anon.9 = type { i64 }
%"class.absl::lts_20230802::Status" = type { i64 }
%"class.grpc_core::promise_filter_detail::BaseCallData::CapturedBatch" = type { ptr }
%struct.grpc_transport_stream_op_batch = type { ptr, ptr, i8, %struct.grpc_handler_private_op_data }
%struct.grpc_handler_private_op_data = type { ptr, %struct.grpc_closure }
%"struct.std::_Tuple_impl.63" = type { %"struct.std::_Head_base.64" }
%"struct.std::_Head_base.64" = type { %"class.grpc_core::Arena::PooledDeleter" }
%"class.grpc_core::Arena::PooledDeleter" = type { i8 }
%struct.grpc_transport_stream_op_batch_payload = type { %struct.anon, %struct.anon.187, %struct.anon.188, %struct.anon.189, %struct.anon.190, %struct.anon.191, %struct.anon.192, ptr }
%struct.anon = type { ptr }
%struct.anon.187 = type { ptr, ptr }
%struct.anon.188 = type <{ ptr, i32, i8, [3 x i8] }>
%struct.anon.189 = type { ptr, ptr, ptr }
%struct.anon.190 = type { ptr, ptr, ptr, ptr }
%struct.anon.191 = type { ptr, ptr, ptr }
%struct.anon.192 = type <{ %"class.absl::lts_20230802::Status", i8, [7 x i8] }>
%"class.grpc_core::promise_filter_detail::ClientCallData" = type { %"class.grpc_core::promise_filter_detail::BaseCallData", [8 x i8], %"class.grpc_core::ArenaPromise", %"class.grpc_core::promise_filter_detail::BaseCallData::CapturedBatch", ptr, %"class.std::unique_ptr.207", ptr, ptr, %struct.grpc_closure, %"class.absl::lts_20230802::Status", i32, i32, ptr, %"class.grpc_core::ClientInitialMetadataOutstandingToken" }
%"class.grpc_core::ArenaPromise" = type { %"struct.grpc_core::arena_promise_detail::VtableAndArg" }
%"struct.grpc_core::arena_promise_detail::VtableAndArg" = type { ptr, [8 x i8], %"struct.grpc_core::arena_promise_detail::ArgType" }
%"struct.grpc_core::arena_promise_detail::ArgType" = type { [8 x i8], [8 x i8] }
%"class.std::unique_ptr.207" = type { %"struct.std::__uniq_ptr_data.208" }
%"struct.std::__uniq_ptr_data.208" = type { %"class.std::__uniq_ptr_impl.209" }
%"class.std::__uniq_ptr_impl.209" = type { %"class.std::tuple.210" }
%"class.std::tuple.210" = type { %"struct.std::_Tuple_impl.211" }
%"struct.std::_Tuple_impl.211" = type { %"struct.std::_Tuple_impl.63", %"struct.std::_Head_base.212" }
%"struct.std::_Head_base.212" = type { ptr }
%"class.grpc_core::ClientInitialMetadataOutstandingToken" = type { ptr }

; Function Attrs: mustprogress nounwind uwtable
define linkonce_odr noundef ptr @_ZN9grpc_core21promise_filter_detail12BaseCallData13CapturedBatchptEv(ptr noundef nonnull align 8 dereferenceable(8) %this) #5 comdat align 2 {
entry:
  %this.addr = alloca ptr, align 8
  store ptr %this, ptr %this.addr, align 8
  %this1 = load ptr, ptr %this.addr, align 8
  %batch_ = getelementptr inbounds %"class.grpc_core::promise_filter_detail::BaseCallData::CapturedBatch", ptr %this1, i32 0, i32 0
  %0 = load ptr, ptr %batch_, align 8
  ret ptr %0
}

; Function Attrs: mustprogress uwtable
define void @_ZN9grpc_core21promise_filter_detail14ClientCallData24HookRecvTrailingMetadataENS0_12BaseCallData13CapturedBatchE(ptr noundef nonnull align 16 dereferenceable(272) %this, ptr noundef %batch) #4 align 2 {
entry:
  %this.addr = alloca ptr, align 8
  %batch.indirect_addr = alloca ptr, align 8
  store ptr %this, ptr %this.addr, align 8
  store ptr %batch, ptr %batch.indirect_addr, align 8
  %this1 = load ptr, ptr %this.addr, align 8
  %call = call noundef ptr @_ZN9grpc_core21promise_filter_detail12BaseCallData13CapturedBatchptEv(ptr noundef nonnull align 8 dereferenceable(8) %batch)
  %payload = getelementptr inbounds %struct.grpc_transport_stream_op_batch, ptr %call, i32 0, i32 1
  %0 = load ptr, ptr %payload, align 8
  %recv_trailing_metadata = getelementptr inbounds %struct.grpc_transport_stream_op_batch_payload, ptr %0, i32 0, i32 5
  %recv_trailing_metadata2 = getelementptr inbounds %struct.anon.191, ptr %recv_trailing_metadata, i32 0, i32 0
  %1 = load ptr, ptr %recv_trailing_metadata2, align 8
  %recv_trailing_metadata_ = getelementptr inbounds %"class.grpc_core::promise_filter_detail::ClientCallData", ptr %this1, i32 0, i32 4
  store ptr %1, ptr %recv_trailing_metadata_, align 8
  %call3 = call noundef ptr @_ZN9grpc_core21promise_filter_detail12BaseCallData13CapturedBatchptEv(ptr noundef nonnull align 8 dereferenceable(8) %batch)
  %payload4 = getelementptr inbounds %struct.grpc_transport_stream_op_batch, ptr %call3, i32 0, i32 1
  %2 = load ptr, ptr %payload4, align 8
  %recv_trailing_metadata5 = getelementptr inbounds %struct.grpc_transport_stream_op_batch_payload, ptr %2, i32 0, i32 5
  %recv_trailing_metadata_ready = getelementptr inbounds %struct.anon.191, ptr %recv_trailing_metadata5, i32 0, i32 2
  %3 = load ptr, ptr %recv_trailing_metadata_ready, align 8
  %original_recv_trailing_metadata_ready_ = getelementptr inbounds %"class.grpc_core::promise_filter_detail::ClientCallData", ptr %this1, i32 0, i32 7
  store ptr %3, ptr %original_recv_trailing_metadata_ready_, align 8
  %recv_trailing_metadata_ready_ = getelementptr inbounds %"class.grpc_core::promise_filter_detail::ClientCallData", ptr %this1, i32 0, i32 8
  %call6 = call noundef ptr @_ZN9grpc_core21promise_filter_detail12BaseCallData13CapturedBatchptEv(ptr noundef nonnull align 8 dereferenceable(8) %batch)
  %payload7 = getelementptr inbounds %struct.grpc_transport_stream_op_batch, ptr %call6, i32 0, i32 1
  %4 = load ptr, ptr %payload7, align 8
  %recv_trailing_metadata8 = getelementptr inbounds %struct.grpc_transport_stream_op_batch_payload, ptr %4, i32 0, i32 5
  %recv_trailing_metadata_ready9 = getelementptr inbounds %struct.anon.191, ptr %recv_trailing_metadata8, i32 0, i32 2
  store ptr %recv_trailing_metadata_ready_, ptr %recv_trailing_metadata_ready9, align 8
  ret void
}