; Function Attrs: mustprogress nofree norecurse nosync nounwind willreturn memory(readwrite, inaccessiblemem: none) uwtable
define void @_ZN9grpc_core21promise_filter_detail14ClientCallData24HookRecvTrailingMetadataENS0_12BaseCallData13CapturedBatchE(ptr noundef nonnull align 16 dereferenceable(272) %this, ptr nocapture noundef readonly %batch) local_unnamed_addr #19 align 2 {
entry:
  %0 = load ptr, ptr %batch, align 8
  %payload = getelementptr inbounds i8, ptr %0, i64 8
  %1 = load ptr, ptr %payload, align 8
  %recv_trailing_metadata = getelementptr inbounds i8, ptr %1, i64 96
  %2 = load ptr, ptr %recv_trailing_metadata, align 8
  %recv_trailing_metadata_ = getelementptr inbounds i8, ptr %this, i64 168
  store ptr %2, ptr %recv_trailing_metadata_, align 8
  %3 = load ptr, ptr %batch, align 8
  %payload4 = getelementptr inbounds i8, ptr %3, i64 8
  %4 = load ptr, ptr %payload4, align 8
  %recv_trailing_metadata_ready = getelementptr inbounds i8, ptr %4, i64 112
  %5 = load ptr, ptr %recv_trailing_metadata_ready, align 8
  %original_recv_trailing_metadata_ready_ = getelementptr inbounds i8, ptr %this, i64 200
  store ptr %5, ptr %original_recv_trailing_metadata_ready_, align 8
  %recv_trailing_metadata_ready_ = getelementptr inbounds i8, ptr %this, i64 208
  %6 = load ptr, ptr %batch, align 8
  %payload7 = getelementptr inbounds i8, ptr %6, i64 8
  %7 = load ptr, ptr %payload7, align 8
  %recv_trailing_metadata_ready9 = getelementptr inbounds i8, ptr %7, i64 112
  store ptr %recv_trailing_metadata_ready_, ptr %recv_trailing_metadata_ready9, align 8
  ret void
}